target datalayout = "e-m:e-p270:32:32-p271:32:32-p272:64:64-i64:64-i128:128-f80:128-n8:16:32:64-S128"
target triple = "x86_64-pc-linux-gnu"

%struct.grpc_slice = type { ptr, %"union.grpc_slice::grpc_slice_data" }
%"union.grpc_slice::grpc_slice_data" = type { %"struct.grpc_slice::grpc_slice_data::grpc_slice_refcounted", [8 x i8] }
%"struct.grpc_slice::grpc_slice_data::grpc_slice_refcounted" = type { i64, ptr }
%"struct.grpc_slice::grpc_slice_data::grpc_slice_inlined" = type { i8, [23 x i8] }

; Function Attrs: mustprogress nounwind uwtable
define i32 @grpc_slice_rchr(ptr noundef byval(%struct.grpc_slice) align 8 %0, i8 noundef signext %1) #7 {
  %3 = alloca i8, align 1
  %4 = alloca ptr, align 8
  %5 = alloca i32, align 4
  store i8 %1, ptr %3, align 1, !tbaa !9
  call void @llvm.lifetime.start.p0(i64 8, ptr %4) #3
  %6 = getelementptr inbounds nuw %struct.grpc_slice, ptr %0, i32 0, i32 0
  %7 = load ptr, ptr %6, align 8, !tbaa !3
  %8 = icmp ne ptr %7, null
  br i1 %8, label %9, label %13

9:                                                ; preds = %2
  %10 = getelementptr inbounds nuw %struct.grpc_slice, ptr %0, i32 0, i32 1
  %11 = getelementptr inbounds nuw %"struct.grpc_slice::grpc_slice_data::grpc_slice_refcounted", ptr %10, i32 0, i32 1
  %12 = load ptr, ptr %11, align 8, !tbaa !9
  br label %17

13:                                               ; preds = %2
  %14 = getelementptr inbounds nuw %struct.grpc_slice, ptr %0, i32 0, i32 1
  %15 = getelementptr inbounds nuw %"struct.grpc_slice::grpc_slice_data::grpc_slice_inlined", ptr %14, i32 0, i32 1
  %16 = getelementptr inbounds [23 x i8], ptr %15, i64 0, i64 0
  br label %17

17:                                               ; preds = %13, %9
  %18 = phi ptr [ %12, %9 ], [ %16, %13 ]
  store ptr %18, ptr %4, align 8, !tbaa !10
  call void @llvm.lifetime.start.p0(i64 4, ptr %5) #3
  %19 = getelementptr inbounds nuw %struct.grpc_slice, ptr %0, i32 0, i32 0
  %20 = load ptr, ptr %19, align 8, !tbaa !3
  %21 = icmp ne ptr %20, null
  br i1 %21, label %22, label %26

22:                                               ; preds = %17
  %23 = getelementptr inbounds nuw %struct.grpc_slice, ptr %0, i32 0, i32 1
  %24 = getelementptr inbounds nuw %"struct.grpc_slice::grpc_slice_data::grpc_slice_refcounted", ptr %23, i32 0, i32 0
  %25 = load i64, ptr %24, align 8, !tbaa !9
  br label %31

26:                                               ; preds = %17
  %27 = getelementptr inbounds nuw %struct.grpc_slice, ptr %0, i32 0, i32 1
  %28 = getelementptr inbounds nuw %"struct.grpc_slice::grpc_slice_data::grpc_slice_inlined", ptr %27, i32 0, i32 0
  %29 = load i8, ptr %28, align 8, !tbaa !9
  %30 = zext i8 %29 to i64
  br label %31

31:                                               ; preds = %26, %22
  %32 = phi i64 [ %25, %22 ], [ %30, %26 ]
  %33 = trunc i64 %32 to i32
  %34 = sub nsw i32 %33, 1
  store i32 %34, ptr %5, align 4, !tbaa !54
  br label %35

35:                                               ; preds = %51, %31
  %36 = load i32, ptr %5, align 4, !tbaa !54
  %37 = icmp ne i32 %36, -1
  br i1 %37, label %38, label %48

38:                                               ; preds = %35
  %39 = load ptr, ptr %4, align 8, !tbaa !10
  %40 = load i32, ptr %5, align 4, !tbaa !54
  %41 = sext i32 %40 to i64
  %42 = getelementptr inbounds i8, ptr %39, i64 %41
  %43 = load i8, ptr %42, align 1, !tbaa !9
  %44 = sext i8 %43 to i32
  %45 = load i8, ptr %3, align 1, !tbaa !9
  %46 = sext i8 %45 to i32
  %47 = icmp ne i32 %44, %46
  br label %48

48:                                               ; preds = %38, %35
  %49 = phi i1 [ false, %35 ], [ %47, %38 ]
  br i1 %49, label %50, label %54

50:                                               ; preds = %48
  br label %51

51:                                               ; preds = %50
  %52 = load i32, ptr %5, align 4, !tbaa !54
  %53 = add nsw i32 %52, -1
  store i32 %53, ptr %5, align 4, !tbaa !54
  br label %35, !llvm.loop !56

54:                                               ; preds = %48
  %55 = load i32, ptr %5, align 4, !tbaa !54
  call void @llvm.lifetime.end.p0(i64 4, ptr %5) #3
  call void @llvm.lifetime.end.p0(i64 8, ptr %4) #3
  ret i32 %55
}