; Function Attrs: mustprogress nofree norecurse nosync nounwind willreturn memory(read, inaccessiblemem: none) uwtable
define range(i32 -2147483648, 2147483647) i32 @grpc_slice_rchr(ptr noundef readonly byval(%struct.grpc_slice) align 8 captures(none) %0, i8 noundef signext %1) local_unnamed_addr #15 {
  %3 = load ptr, ptr %0, align 8, !tbaa !3
  %.not = icmp eq ptr %3, null
  %4 = getelementptr inbounds nuw i8, ptr %0, i64 8
  %5 = getelementptr inbounds nuw i8, ptr %0, i64 16
  %6 = load ptr, ptr %5, align 8
  %7 = getelementptr inbounds nuw i8, ptr %0, i64 9
  %8 = select i1 %.not, ptr %7, ptr %6
  %9 = load i64, ptr %4, align 8
  %10 = shl i64 %9, 32
  %11 = ashr exact i64 %10, 32
  %12 = and i64 %9, 255
  %13 = select i1 %.not, i64 %12, i64 %11
  br label %14

14:                                               ; preds = %16, %2
  %indvars.iv = phi i64 [ %indvars.iv.next, %16 ], [ %13, %2 ]
  %15 = icmp eq i64 %indvars.iv, 0
  br i1 %15, label %.critedge, label %16

16:                                               ; preds = %14
  %indvars.iv.next = add nsw i64 %indvars.iv, -1
  %17 = getelementptr inbounds i8, ptr %8, i64 %indvars.iv.next
  %18 = load i8, ptr %17, align 1, !tbaa !9
  %.not6 = icmp eq i8 %18, %1
  br i1 %.not6, label %.critedge.split.loop.exit8, label %14, !llvm.loop !85

.critedge.split.loop.exit8:                       ; preds = %16
  %19 = trunc nsw i64 %indvars.iv.next to i32
  br label %.critedge

.critedge:                                        ; preds = %14, %.critedge.split.loop.exit8
  %.0.lcssa = phi i32 [ %19, %.critedge.split.loop.exit8 ], [ -1, %14 ]
  ret i32 %.0.lcssa
}